target datalayout = "e-m:e-p270:32:32-p271:32:32-p272:64:64-i64:64-i128:128-f80:128-n8:16:32:64-S128"
target triple = "x86_64-pc-linux-gnu"

%struct.__va_list_tag = type { i32, i32, ptr, ptr }
%struct.file = type { i32, i32, ptr, ptr }

; Function Attrs: nounwind uwtable
define internal i32 @nx_vopen(ptr noundef %0, ptr noundef %1, i32 noundef %2, ptr noundef %3) #0 {
  %5 = alloca i32, align 4
  %6 = alloca ptr, align 8
  %7 = alloca ptr, align 8
  %8 = alloca i32, align 4
  %9 = alloca ptr, align 8
  %10 = alloca %struct.file, align 8
  %11 = alloca i32, align 4
  %12 = alloca i32, align 4
  store ptr %0, ptr %6, align 8
  store ptr %1, ptr %7, align 8
  store i32 %2, ptr %8, align 4
  store ptr %3, ptr %9, align 8
  %13 = load ptr, ptr %7, align 8
  %14 = load i32, ptr %8, align 4
  %15 = call i32 @getumask()
  %16 = load ptr, ptr %9, align 8
  %17 = call i32 @file_vopen(ptr noundef %10, ptr noundef %13, i32 noundef %14, i32 noundef %15, ptr noundef %16)
  store i32 %17, ptr %11, align 4
  %18 = load i32, ptr %11, align 4
  %19 = icmp slt i32 %18, 0
  br i1 %19, label %20, label %22

20:                                               ; preds = %4
  %21 = load i32, ptr %11, align 4
  store i32 %21, ptr %5, align 4
  br label %39

22:                                               ; preds = %4
  %23 = load ptr, ptr %6, align 8
  %24 = getelementptr inbounds %struct.file, ptr %10, i32 0, i32 2
  %25 = load ptr, ptr %24, align 8
  %26 = getelementptr inbounds %struct.file, ptr %10, i32 0, i32 0
  %27 = load i32, ptr %26, align 8
  %28 = getelementptr inbounds %struct.file, ptr %10, i32 0, i32 1
  %29 = load i32, ptr %28, align 4
  %30 = getelementptr inbounds %struct.file, ptr %10, i32 0, i32 3
  %31 = load ptr, ptr %30, align 8
  %32 = call i32 @file_allocate_from_tcb(ptr noundef %23, ptr noundef %25, i32 noundef %27, i32 noundef %29, ptr noundef %31, i32 noundef 0, i1 noundef zeroext false)
  store i32 %32, ptr %12, align 4
  %33 = load i32, ptr %12, align 4
  %34 = icmp slt i32 %33, 0
  br i1 %34, label %35, label %37

35:                                               ; preds = %22
  %36 = call i32 @file_close(ptr noundef %10)
  br label %37

37:                                               ; preds = %35, %22
  %38 = load i32, ptr %12, align 4
  store i32 %38, ptr %5, align 4
  br label %39

39:                                               ; preds = %37, %20
  %40 = load i32, ptr %5, align 4
  ret i32 %40
}

; Function Attrs: nounwind uwtable
define i32 @open(ptr noundef %0, i32 noundef %1, ...) #0 {
  %3 = alloca ptr, align 8
  %4 = alloca i32, align 4
  %5 = alloca [1 x %struct.__va_list_tag], align 16
  %6 = alloca i32, align 4
  store ptr %0, ptr %3, align 8
  store i32 %1, ptr %4, align 4
  %7 = getelementptr inbounds [1 x %struct.__va_list_tag], ptr %5, i64 0, i64 0
  call void @llvm.va_start(ptr %7)
  %8 = call ptr @nxsched_self()
  %9 = load ptr, ptr %3, align 8
  %10 = load i32, ptr %4, align 4
  %11 = getelementptr inbounds [1 x %struct.__va_list_tag], ptr %5, i64 0, i64 0
  %12 = call i32 @nx_vopen(ptr noundef %8, ptr noundef %9, i32 noundef %10, ptr noundef %11)
  store i32 %12, ptr %6, align 4
  %13 = getelementptr inbounds [1 x %struct.__va_list_tag], ptr %5, i64 0, i64 0
  call void @llvm.va_end(ptr %13)
  %14 = load i32, ptr %6, align 4
  %15 = icmp slt i32 %14, 0
  br i1 %15, label %16, label %22

16:                                               ; preds = %2
  br label %17

17:                                               ; preds = %16
  %18 = load i32, ptr %6, align 4
  %19 = sub nsw i32 0, %18
  %20 = call ptr @__errno()
  store i32 %19, ptr %20, align 4
  br label %21

21:                                               ; preds = %17
  store i32 -1, ptr %6, align 4
  br label %22

22:                                               ; preds = %21, %2
  %23 = load i32, ptr %6, align 4
  ret i32 %23
}